
build/test.elf:     file format elf32-littleriscv

SYMBOL TABLE:
00000000 l    d  .vectors	00000000 .vectors
00000084 l    d  .text	00000000 .text
000006c0 l    d  .rodata	00000000 .rodata
000006c0 l    d  .data	00000000 .data
000006c0 l    d  .got	00000000 .got
000006dc l    d  .got.plt	00000000 .got.plt
000006e4 l    d  .bss	00000000 .bss
00000700 l    d  .stack	00000000 .stack
00000000 l    d  .comment	00000000 .comment
00000000 l    d  .riscv.attributes	00000000 .riscv.attributes
00000000 l    df *ABS*	00000000 /tmp/ccCdJb4o.o
00000338 l       .text	00000000 reset_handler
000003e0 l       .text	00000000 zero_loop_end
000003d4 l       .text	00000000 zero_loop
000003e0 l       .text	00000000 main_entry
000003ec l       .text	00000000 sleep_loop
00000000 l    df *ABS*	00000000 test.c
00000000 l    df *ABS*	00000000 
000006c0 l     O .got	00000000 _GLOBAL_OFFSET_TABLE_
000006ec g     O .bss	00000004 fail
00000330 g       .text	00000000 test_clmulh
000000e8 g     F .text	00000014 gold_pack
00000308 g       .text	00000000 test_zip
00000320 g       .text	00000000 test_xperm4
000000dc g     F .text	0000000c gold_xnor
00000100 g       *ABS*	00000000 _stack_len
00000114 g     F .text	00000070 gold_brev8
000006e8 g     O .bss	00000004 expect
000006e4 g       .bss	00000000 _bss_start
000002c0 g       .text	00000000 test_rol
000002e0 g       .text	00000000 test_xnor
000002f0 g       .text	00000000 test_packh
00000780 g       .stack	00000000 stack
000001b8 g     F .text	00000028 shfl_st
000002b8 g       .text	00000000 test_ror
00000080 g       *ABS*	00000000 _entry_point
000006f0 g       .bss	00000000 _bss_end
000000b4 g     F .text	00000010 gold_ror7
00000800 g       .vectors	00000000 _stack_top
0000009c g     F .text	00000018 gold_rol
000002c8 g       .text	00000000 test_ror7
000001e0 g     F .text	0000006c gold_unzip
000000c4 g     F .text	0000000c gold_andn
000003c0 g       .text	00000000 _start
000002d0 g       .text	00000000 test_andn
00000084 g     F .text	00000018 gold_ror
00000310 g       .text	00000000 test_unzip
000003f4 g     F .text	000002cc main
00000084 g       .vectors	00000000 _vectors_end
000000fc g     F .text	00000018 gold_packh
000002e8 g       .text	00000000 test_pack
00000328 g       .text	00000000 test_clmul
000006e4 g     O .bss	00000004 result
00000080 g       *ABS*	00000000 _min_stack
00000300 g       .text	00000000 test_rev8
00000184 g     F .text	00000034 gold_rev8
000000d0 g     F .text	0000000c gold_orn
000002d8 g       .text	00000000 test_orn
00000780 g       .stack	00000000 _stack
0000024c g     F .text	0000006c gold_zip
00000000 g       .vectors	00000000 _vectors_start
000002f8 g       .text	00000000 test_brev8
00000318 g       .text	00000000 test_xperm8



Disassembly of section .vectors:

00000000 <_vectors_start>:
	...
  80:	2b80006f          	j	338 <reset_handler>

Disassembly of section .text:

00000084 <gold_ror>:
  84:	01f5f593          	andi	a1,a1,31
  88:	00b557b3          	srl	a5,a0,a1
  8c:	40b005b3          	neg	a1,a1
  90:	00b51533          	sll	a0,a0,a1
  94:	00f56533          	or	a0,a0,a5
  98:	00008067          	ret

0000009c <gold_rol>:
  9c:	01f5f593          	andi	a1,a1,31
  a0:	00b517b3          	sll	a5,a0,a1
  a4:	40b005b3          	neg	a1,a1
  a8:	00b55533          	srl	a0,a0,a1
  ac:	00f56533          	or	a0,a0,a5
  b0:	00008067          	ret

000000b4 <gold_ror7>:
  b4:	00755793          	srli	a5,a0,0x7
  b8:	01951513          	slli	a0,a0,0x19
  bc:	00f56533          	or	a0,a0,a5
  c0:	00008067          	ret

000000c4 <gold_andn>:
  c4:	fff5c593          	not	a1,a1
  c8:	00a5f533          	and	a0,a1,a0
  cc:	00008067          	ret

000000d0 <gold_orn>:
  d0:	fff5c593          	not	a1,a1
  d4:	00a5e533          	or	a0,a1,a0
  d8:	00008067          	ret

000000dc <gold_xnor>:
  dc:	00a5c533          	xor	a0,a1,a0
  e0:	fff54513          	not	a0,a0
  e4:	00008067          	ret

000000e8 <gold_pack>:
  e8:	01051513          	slli	a0,a0,0x10
  ec:	01059593          	slli	a1,a1,0x10
  f0:	01055513          	srli	a0,a0,0x10
  f4:	00a5e533          	or	a0,a1,a0
  f8:	00008067          	ret

000000fc <gold_packh>:
  fc:	00859593          	slli	a1,a1,0x8
 100:	0ff57513          	andi	a0,a0,255
 104:	00a5e533          	or	a0,a1,a0
 108:	01051513          	slli	a0,a0,0x10
 10c:	01055513          	srli	a0,a0,0x10
 110:	00008067          	ret

00000114 <gold_brev8>:
 114:	aaaab7b7          	lui	a5,0xaaaab
 118:	00151713          	slli	a4,a0,0x1
 11c:	aaa78793          	addi	a5,a5,-1366 # aaaaaaaa <_stack_top+0xaaaaa2aa>
 120:	00f77733          	and	a4,a4,a5
 124:	555557b7          	lui	a5,0x55555
 128:	55578793          	addi	a5,a5,1365 # 55555555 <_stack_top+0x55554d55>
 12c:	00155513          	srli	a0,a0,0x1
 130:	00f57533          	and	a0,a0,a5
 134:	00a76733          	or	a4,a4,a0
 138:	ccccd537          	lui	a0,0xccccd
 13c:	00271793          	slli	a5,a4,0x2
 140:	ccc50513          	addi	a0,a0,-820 # cccccccc <_stack_top+0xccccc4cc>
 144:	00a7f7b3          	and	a5,a5,a0
 148:	33333537          	lui	a0,0x33333
 14c:	33350513          	addi	a0,a0,819 # 33333333 <_stack_top+0x33332b33>
 150:	00275713          	srli	a4,a4,0x2
 154:	00a77733          	and	a4,a4,a0
 158:	00e7e7b3          	or	a5,a5,a4
 15c:	f0f0f737          	lui	a4,0xf0f0f
 160:	00479513          	slli	a0,a5,0x4
 164:	0f070713          	addi	a4,a4,240 # f0f0f0f0 <_stack_top+0xf0f0e8f0>
 168:	00e57533          	and	a0,a0,a4
 16c:	0f0f1737          	lui	a4,0xf0f1
 170:	f0f70713          	addi	a4,a4,-241 # f0f0f0f <_stack_top+0xf0f070f>
 174:	0047d793          	srli	a5,a5,0x4
 178:	00e7f7b3          	and	a5,a5,a4
 17c:	00f56533          	or	a0,a0,a5
 180:	00008067          	ret

00000184 <gold_rev8>:
 184:	ff010737          	lui	a4,0xff010
 188:	00851793          	slli	a5,a0,0x8
 18c:	f0070713          	addi	a4,a4,-256 # ff00ff00 <_stack_top+0xff00f700>
 190:	00e7f7b3          	and	a5,a5,a4
 194:	00ff0737          	lui	a4,0xff0
 198:	0ff70713          	addi	a4,a4,255 # ff00ff <_stack_top+0xfef8ff>
 19c:	00855513          	srli	a0,a0,0x8
 1a0:	00e57533          	and	a0,a0,a4
 1a4:	00a7e7b3          	or	a5,a5,a0
 1a8:	01079513          	slli	a0,a5,0x10
 1ac:	0107d793          	srli	a5,a5,0x10
 1b0:	00a7e533          	or	a0,a5,a0
 1b4:	00008067          	ret

000001b8 <shfl_st>:
 1b8:	00c5e7b3          	or	a5,a1,a2
 1bc:	fff7c793          	not	a5,a5
 1c0:	00a7f7b3          	and	a5,a5,a0
 1c4:	00d51733          	sll	a4,a0,a3
 1c8:	00d55533          	srl	a0,a0,a3
 1cc:	00b775b3          	and	a1,a4,a1
 1d0:	00c57633          	and	a2,a0,a2
 1d4:	00c5e533          	or	a0,a1,a2
 1d8:	00f56533          	or	a0,a0,a5
 1dc:	00008067          	ret

000001e0 <gold_unzip>:
 1e0:	22222637          	lui	a2,0x22222
 1e4:	444445b7          	lui	a1,0x44444
 1e8:	ff010113          	addi	sp,sp,-16
 1ec:	00100693          	li	a3,1
 1f0:	22260613          	addi	a2,a2,546 # 22222222 <_stack_top+0x22221a22>
 1f4:	44458593          	addi	a1,a1,1092 # 44444444 <_stack_top+0x44443c44>
 1f8:	00112623          	sw	ra,12(sp)
 1fc:	fbdff0ef          	jal	ra,1b8 <shfl_st>
 200:	0c0c1637          	lui	a2,0xc0c1
 204:	303035b7          	lui	a1,0x30303
 208:	00200693          	li	a3,2
 20c:	c0c60613          	addi	a2,a2,-1012 # c0c0c0c <_stack_top+0xc0c040c>
 210:	03058593          	addi	a1,a1,48 # 30303030 <_stack_top+0x30302830>
 214:	fa5ff0ef          	jal	ra,1b8 <shfl_st>
 218:	00f00637          	lui	a2,0xf00
 21c:	0f0015b7          	lui	a1,0xf001
 220:	00400693          	li	a3,4
 224:	0f060613          	addi	a2,a2,240 # f000f0 <_stack_top+0xeff8f0>
 228:	f0058593          	addi	a1,a1,-256 # f000f00 <_stack_top+0xf000700>
 22c:	f8dff0ef          	jal	ra,1b8 <shfl_st>
 230:	00c12083          	lw	ra,12(sp)
 234:	00010637          	lui	a2,0x10
 238:	00800693          	li	a3,8
 23c:	f0060613          	addi	a2,a2,-256 # ff00 <_stack_top+0xf700>
 240:	00ff05b7          	lui	a1,0xff0
 244:	01010113          	addi	sp,sp,16
 248:	f71ff06f          	j	1b8 <shfl_st>

0000024c <gold_zip>:
 24c:	00010637          	lui	a2,0x10
 250:	ff010113          	addi	sp,sp,-16
 254:	00800693          	li	a3,8
 258:	f0060613          	addi	a2,a2,-256 # ff00 <_stack_top+0xf700>
 25c:	00ff05b7          	lui	a1,0xff0
 260:	00112623          	sw	ra,12(sp)
 264:	f55ff0ef          	jal	ra,1b8 <shfl_st>
 268:	00f00637          	lui	a2,0xf00
 26c:	0f0015b7          	lui	a1,0xf001
 270:	00400693          	li	a3,4
 274:	0f060613          	addi	a2,a2,240 # f000f0 <_stack_top+0xeff8f0>
 278:	f0058593          	addi	a1,a1,-256 # f000f00 <_stack_top+0xf000700>
 27c:	f3dff0ef          	jal	ra,1b8 <shfl_st>
 280:	0c0c1637          	lui	a2,0xc0c1
 284:	303035b7          	lui	a1,0x30303
 288:	00200693          	li	a3,2
 28c:	c0c60613          	addi	a2,a2,-1012 # c0c0c0c <_stack_top+0xc0c040c>
 290:	03058593          	addi	a1,a1,48 # 30303030 <_stack_top+0x30302830>
 294:	f25ff0ef          	jal	ra,1b8 <shfl_st>
 298:	00c12083          	lw	ra,12(sp)
 29c:	22222637          	lui	a2,0x22222
 2a0:	444445b7          	lui	a1,0x44444
 2a4:	00100693          	li	a3,1
 2a8:	22260613          	addi	a2,a2,546 # 22222222 <_stack_top+0x22221a22>
 2ac:	44458593          	addi	a1,a1,1092 # 44444444 <_stack_top+0x44443c44>
 2b0:	01010113          	addi	sp,sp,16
 2b4:	f05ff06f          	j	1b8 <shfl_st>

000002b8 <test_ror>:
 2b8:	60b55533          	ror	a0,a0,a1
 2bc:	00008067          	ret

000002c0 <test_rol>:
 2c0:	60b51533          	rol	a0,a0,a1
 2c4:	00008067          	ret

000002c8 <test_ror7>:
 2c8:	60755513          	rori	a0,a0,0x7
 2cc:	00008067          	ret

000002d0 <test_andn>:
 2d0:	40b57533          	andn	a0,a0,a1
 2d4:	00008067          	ret

000002d8 <test_orn>:
 2d8:	40b56533          	orn	a0,a0,a1
 2dc:	00008067          	ret

000002e0 <test_xnor>:
 2e0:	40b54533          	xnor	a0,a0,a1
 2e4:	00008067          	ret

000002e8 <test_pack>:
 2e8:	08b54533          	pack	a0,a0,a1
 2ec:	00008067          	ret

000002f0 <test_packh>:
 2f0:	08b57533          	packh	a0,a0,a1
 2f4:	00008067          	ret

000002f8 <test_brev8>:
 2f8:	68755513          	grevi	a0,a0,0x7
 2fc:	00008067          	ret

00000300 <test_rev8>:
 300:	69855513          	grevi	a0,a0,0x18
 304:	00008067          	ret

00000308 <test_zip>:
 308:	08f51513          	shfli	a0,a0,0xf
 30c:	00008067          	ret

00000310 <test_unzip>:
 310:	08f55513          	unshfli	a0,a0,0xf
 314:	00008067          	ret

00000318 <test_xperm8>:
 318:	28b54533          	xperm8	a0,a0,a1
 31c:	00008067          	ret

00000320 <test_xperm4>:
 320:	28b52533          	xperm4	a0,a0,a1
 324:	00008067          	ret

00000328 <test_clmul>:
 328:	0ab51533          	clmul	a0,a0,a1
 32c:	00008067          	ret

00000330 <test_clmulh>:
 330:	0ab53533          	clmulh	a0,a0,a1
 334:	00008067          	ret

00000338 <reset_handler>:
 338:	00000093          	li	ra,0
 33c:	00008113          	mv	sp,ra
 340:	00008193          	mv	gp,ra
 344:	00008213          	mv	tp,ra
 348:	00008293          	mv	t0,ra
 34c:	00008313          	mv	t1,ra
 350:	00008393          	mv	t2,ra
 354:	00008413          	mv	s0,ra
 358:	00008493          	mv	s1,ra
 35c:	00008513          	mv	a0,ra
 360:	00008593          	mv	a1,ra
 364:	00008613          	mv	a2,ra
 368:	00008693          	mv	a3,ra
 36c:	00008713          	mv	a4,ra
 370:	00008793          	mv	a5,ra
 374:	00008813          	mv	a6,ra
 378:	00008893          	mv	a7,ra
 37c:	00008913          	mv	s2,ra
 380:	00008993          	mv	s3,ra
 384:	00008a13          	mv	s4,ra
 388:	00008a93          	mv	s5,ra
 38c:	00008b13          	mv	s6,ra
 390:	00008b93          	mv	s7,ra
 394:	00008c13          	mv	s8,ra
 398:	00008c93          	mv	s9,ra
 39c:	00008d13          	mv	s10,ra
 3a0:	00008d93          	mv	s11,ra
 3a4:	00008e13          	mv	t3,ra
 3a8:	00008e93          	mv	t4,ra
 3ac:	00008f13          	mv	t5,ra
 3b0:	00008f93          	mv	t6,ra
 3b4:	00000117          	auipc	sp,0x0
 3b8:	32012103          	lw	sp,800(sp) # 6d4 <_GLOBAL_OFFSET_TABLE_+0x14>
 3bc:	ff810113          	addi	sp,sp,-8

000003c0 <_start>:
 3c0:	00000d17          	auipc	s10,0x0
 3c4:	30cd2d03          	lw	s10,780(s10) # 6cc <_GLOBAL_OFFSET_TABLE_+0xc>
 3c8:	00000d97          	auipc	s11,0x0
 3cc:	308dad83          	lw	s11,776(s11) # 6d0 <_GLOBAL_OFFSET_TABLE_+0x10>
 3d0:	01bd5863          	bge	s10,s11,3e0 <main_entry>

000003d4 <zero_loop>:
 3d4:	000d2023          	sw	zero,0(s10)
 3d8:	004d0d13          	addi	s10,s10,4
 3dc:	ffaddce3          	bge	s11,s10,3d4 <zero_loop>

000003e0 <main_entry>:
 3e0:	00000513          	li	a0,0
 3e4:	00000593          	li	a1,0
 3e8:	00c000ef          	jal	ra,3f4 <main>

000003ec <sleep_loop>:
 3ec:	10500073          	wfi
 3f0:	ffdff06f          	j	3ec <sleep_loop>

000003f4 <main>:
 3f4:	fd010113          	addi	sp,sp,-48
 3f8:	02812423          	sw	s0,40(sp)
 3fc:	02912223          	sw	s1,36(sp)
 400:	01312e23          	sw	s3,28(sp)
 404:	010204b7          	lui	s1,0x1020
 408:	00000997          	auipc	s3,0x0
 40c:	2bc9a983          	lw	s3,700(s3) # 6c4 <_GLOBAL_OFFSET_TABLE_+0x4>
 410:	23456437          	lui	s0,0x23456
 414:	03212023          	sw	s2,32(sp)
 418:	01412c23          	sw	s4,24(sp)
 41c:	01512a23          	sw	s5,20(sp)
 420:	01612823          	sw	s6,16(sp)
 424:	01712623          	sw	s7,12(sp)
 428:	02112623          	sw	ra,44(sp)
 42c:	0009a023          	sw	zero,0(s3)
 430:	00200b13          	li	s6,2
 434:	30448493          	addi	s1,s1,772 # 1020304 <_stack_top+0x101fb04>
 438:	78940413          	addi	s0,s0,1929 # 23456789 <_stack_top+0x23455f89>
 43c:	00000917          	auipc	s2,0x0
 440:	29c92903          	lw	s2,668(s2) # 6d8 <_GLOBAL_OFFSET_TABLE_+0x18>
 444:	00000a97          	auipc	s5,0x0
 448:	284aaa83          	lw	s5,644(s5) # 6c8 <_GLOBAL_OFFSET_TABLE_+0x8>
 44c:	00100a13          	li	s4,1
 450:	40000bb7          	lui	s7,0x40000
 454:	00048593          	mv	a1,s1
 458:	00040513          	mv	a0,s0
 45c:	e5dff0ef          	jal	ra,2b8 <test_ror>
 460:	00a92023          	sw	a0,0(s2)
 464:	00048593          	mv	a1,s1
 468:	00040513          	mv	a0,s0
 46c:	c19ff0ef          	jal	ra,84 <gold_ror>
 470:	00092783          	lw	a5,0(s2)
 474:	00aaa023          	sw	a0,0(s5)
 478:	00f50463          	beq	a0,a5,480 <main+0x8c>
 47c:	0149a023          	sw	s4,0(s3)
 480:	00048593          	mv	a1,s1
 484:	00040513          	mv	a0,s0
 488:	e39ff0ef          	jal	ra,2c0 <test_rol>
 48c:	00a92023          	sw	a0,0(s2)
 490:	00048593          	mv	a1,s1
 494:	00040513          	mv	a0,s0
 498:	c05ff0ef          	jal	ra,9c <gold_rol>
 49c:	00092783          	lw	a5,0(s2)
 4a0:	00aaa023          	sw	a0,0(s5)
 4a4:	00f50463          	beq	a0,a5,4ac <main+0xb8>
 4a8:	0149a023          	sw	s4,0(s3)
 4ac:	00040513          	mv	a0,s0
 4b0:	e19ff0ef          	jal	ra,2c8 <test_ror7>
 4b4:	00a92023          	sw	a0,0(s2)
 4b8:	00040513          	mv	a0,s0
 4bc:	bf9ff0ef          	jal	ra,b4 <gold_ror7>
 4c0:	00092783          	lw	a5,0(s2)
 4c4:	00aaa023          	sw	a0,0(s5)
 4c8:	00f50463          	beq	a0,a5,4d0 <main+0xdc>
 4cc:	0149a023          	sw	s4,0(s3)
 4d0:	00048593          	mv	a1,s1
 4d4:	00040513          	mv	a0,s0
 4d8:	df9ff0ef          	jal	ra,2d0 <test_andn>
 4dc:	00a92023          	sw	a0,0(s2)
 4e0:	00048593          	mv	a1,s1
 4e4:	00040513          	mv	a0,s0
 4e8:	bddff0ef          	jal	ra,c4 <gold_andn>
 4ec:	00092783          	lw	a5,0(s2)
 4f0:	00aaa023          	sw	a0,0(s5)
 4f4:	00f50463          	beq	a0,a5,4fc <main+0x108>
 4f8:	0149a023          	sw	s4,0(s3)
 4fc:	00048593          	mv	a1,s1
 500:	00040513          	mv	a0,s0
 504:	dd5ff0ef          	jal	ra,2d8 <test_orn>
 508:	00a92023          	sw	a0,0(s2)
 50c:	00048593          	mv	a1,s1
 510:	00040513          	mv	a0,s0
 514:	bbdff0ef          	jal	ra,d0 <gold_orn>
 518:	00092783          	lw	a5,0(s2)
 51c:	00aaa023          	sw	a0,0(s5)
 520:	00f50463          	beq	a0,a5,528 <main+0x134>
 524:	0149a023          	sw	s4,0(s3)
 528:	00048593          	mv	a1,s1
 52c:	00040513          	mv	a0,s0
 530:	db1ff0ef          	jal	ra,2e0 <test_xnor>
 534:	00a92023          	sw	a0,0(s2)
 538:	00048593          	mv	a1,s1
 53c:	00040513          	mv	a0,s0
 540:	b9dff0ef          	jal	ra,dc <gold_xnor>
 544:	00092783          	lw	a5,0(s2)
 548:	00aaa023          	sw	a0,0(s5)
 54c:	00f50463          	beq	a0,a5,554 <main+0x160>
 550:	0149a023          	sw	s4,0(s3)
 554:	00048593          	mv	a1,s1
 558:	00040513          	mv	a0,s0
 55c:	d8dff0ef          	jal	ra,2e8 <test_pack>
 560:	00a92023          	sw	a0,0(s2)
 564:	00048593          	mv	a1,s1
 568:	00040513          	mv	a0,s0
 56c:	b7dff0ef          	jal	ra,e8 <gold_pack>
 570:	00092783          	lw	a5,0(s2)
 574:	00aaa023          	sw	a0,0(s5)
 578:	00f50463          	beq	a0,a5,580 <main+0x18c>
 57c:	0149a023          	sw	s4,0(s3)
 580:	00048593          	mv	a1,s1
 584:	00040513          	mv	a0,s0
 588:	d69ff0ef          	jal	ra,2f0 <test_packh>
 58c:	00a92023          	sw	a0,0(s2)
 590:	00048593          	mv	a1,s1
 594:	00040513          	mv	a0,s0
 598:	b65ff0ef          	jal	ra,fc <gold_packh>
 59c:	00092783          	lw	a5,0(s2)
 5a0:	00aaa023          	sw	a0,0(s5)
 5a4:	00f50463          	beq	a0,a5,5ac <main+0x1b8>
 5a8:	0149a023          	sw	s4,0(s3)
 5ac:	00040513          	mv	a0,s0
 5b0:	d49ff0ef          	jal	ra,2f8 <test_brev8>
 5b4:	00a92023          	sw	a0,0(s2)
 5b8:	00040513          	mv	a0,s0
 5bc:	b59ff0ef          	jal	ra,114 <gold_brev8>
 5c0:	00092783          	lw	a5,0(s2)
 5c4:	00aaa023          	sw	a0,0(s5)
 5c8:	00f50463          	beq	a0,a5,5d0 <main+0x1dc>
 5cc:	0149a023          	sw	s4,0(s3)
 5d0:	00040513          	mv	a0,s0
 5d4:	d2dff0ef          	jal	ra,300 <test_rev8>
 5d8:	00a92023          	sw	a0,0(s2)
 5dc:	00040513          	mv	a0,s0
 5e0:	ba5ff0ef          	jal	ra,184 <gold_rev8>
 5e4:	00092783          	lw	a5,0(s2)
 5e8:	00aaa023          	sw	a0,0(s5)
 5ec:	00f50463          	beq	a0,a5,5f4 <main+0x200>
 5f0:	0149a023          	sw	s4,0(s3)
 5f4:	00040513          	mv	a0,s0
 5f8:	d11ff0ef          	jal	ra,308 <test_zip>
 5fc:	00a92023          	sw	a0,0(s2)
 600:	00040513          	mv	a0,s0
 604:	c49ff0ef          	jal	ra,24c <gold_zip>
 608:	00092783          	lw	a5,0(s2)
 60c:	00aaa023          	sw	a0,0(s5)
 610:	00f50463          	beq	a0,a5,618 <main+0x224>
 614:	0149a023          	sw	s4,0(s3)
 618:	00040513          	mv	a0,s0
 61c:	cf5ff0ef          	jal	ra,310 <test_unzip>
 620:	00a92023          	sw	a0,0(s2)
 624:	00040513          	mv	a0,s0
 628:	bb9ff0ef          	jal	ra,1e0 <gold_unzip>
 62c:	00092783          	lw	a5,0(s2)
 630:	00aaa023          	sw	a0,0(s5)
 634:	00f50463          	beq	a0,a5,63c <main+0x248>
 638:	0149a023          	sw	s4,0(s3)
 63c:	00145593          	srli	a1,s0,0x1
 640:	0085c4b3          	xor	s1,a1,s0
 644:	01e49493          	slli	s1,s1,0x1e
 648:	0174f4b3          	and	s1,s1,s7
 64c:	00b4e4b3          	or	s1,s1,a1
 650:	0014d793          	srli	a5,s1,0x1
 654:	0097c433          	xor	s0,a5,s1
 658:	01e41413          	slli	s0,s0,0x1e
 65c:	01747433          	and	s0,s0,s7
 660:	00f46433          	or	s0,s0,a5
 664:	054b1463          	bne	s6,s4,6ac <main+0x2b8>
 668:	0009a783          	lw	a5,0(s3)
 66c:	04079463          	bnez	a5,6b4 <main+0x2c0>
 670:	cafec7b7          	lui	a5,0xcafec
 674:	abe78793          	addi	a5,a5,-1346 # cafebabe <_stack_top+0xcafeb2be>
 678:	02c12083          	lw	ra,44(sp)
 67c:	02812403          	lw	s0,40(sp)
 680:	7ef02e23          	sw	a5,2044(zero) # 7fc <_stack+0x7c>
 684:	0009a503          	lw	a0,0(s3)
 688:	02412483          	lw	s1,36(sp)
 68c:	02012903          	lw	s2,32(sp)
 690:	01c12983          	lw	s3,28(sp)
 694:	01812a03          	lw	s4,24(sp)
 698:	01412a83          	lw	s5,20(sp)
 69c:	01012b03          	lw	s6,16(sp)
 6a0:	00c12b83          	lw	s7,12(sp)
 6a4:	03010113          	addi	sp,sp,48
 6a8:	00008067          	ret
 6ac:	00100b13          	li	s6,1
 6b0:	da5ff06f          	j	454 <main+0x60>
 6b4:	deadc7b7          	lui	a5,0xdeadc
 6b8:	eef78793          	addi	a5,a5,-273 # deadbeef <_stack_top+0xdeadb6ef>
 6bc:	fbdff06f          	j	678 <main+0x284>
